; Function Attrs: nounwind uwtable
define internal ptr @test_PyTime_AsMilliseconds(ptr readnone captures(none) %0, ptr noundef %1) #0 {
  %3 = alloca ptr, align 8
  %4 = alloca i32, align 4
  %5 = alloca i64, align 8
  call void @llvm.lifetime.start.p0(i64 8, ptr nonnull %3) #3
  call void @llvm.lifetime.start.p0(i64 4, ptr nonnull %4) #3
  %6 = call i32 (ptr, ptr, ...) @PyArg_ParseTuple(ptr noundef %1, ptr noundef nonnull @.str.12, ptr noundef nonnull %3, ptr noundef nonnull %4) #3
  %.not = icmp eq i32 %6, 0
  br i1 %.not, label %18, label %7

7:                                                ; preds = %2
  call void @llvm.lifetime.start.p0(i64 8, ptr nonnull %5) #3
  %8 = load ptr, ptr %3, align 8, !tbaa !3
  %9 = call i32 @_PyTime_FromLong(ptr noundef nonnull %5, ptr noundef %8) #3
  %10 = icmp slt i32 %9, 0
  br i1 %10, label %17, label %11

11:                                               ; preds = %7
  %12 = load i32, ptr %4, align 4, !tbaa !8
  %or.cond5.i = icmp ugt i32 %12, 3
  br i1 %or.cond5.i, label %check_time_rounding.exit.thread, label %check_time_rounding.exit

check_time_rounding.exit.thread:                  ; preds = %11
  %13 = load ptr, ptr @PyExc_ValueError, align 8, !tbaa !3
  call void @PyErr_SetString(ptr noundef %13, ptr noundef nonnull @.str.13) #3
  br label %17

check_time_rounding.exit:                         ; preds = %11
  %14 = load i64, ptr %5, align 8, !tbaa !10
  %15 = call i64 @_PyTime_AsMilliseconds(i64 noundef %14, i32 noundef %12) #3
  %16 = call ptr @_PyTime_AsLong(i64 noundef %15) #3
  br label %17

17:                                               ; preds = %check_time_rounding.exit.thread, %7, %check_time_rounding.exit
  %.1 = phi ptr [ %16, %check_time_rounding.exit ], [ null, %7 ], [ null, %check_time_rounding.exit.thread ]
  call void @llvm.lifetime.end.p0(i64 8, ptr nonnull %5) #3
  br label %18

18:                                               ; preds = %2, %17
  %.0 = phi ptr [ %.1, %17 ], [ null, %2 ]
  call void @llvm.lifetime.end.p0(i64 4, ptr nonnull %4) #3
  call void @llvm.lifetime.end.p0(i64 8, ptr nonnull %3) #3
  ret ptr %.0
}